; Function Attrs: mustprogress nofree norecurse nosync nounwind memory(readwrite, inaccessiblemem: none) uwtable
define internal fastcc noundef range(i32 0, 3) i32 @_ZNSt3__1L12ucs4_to_utf8EPKjS1_RS1_PhS3_RS3_mNS_12codecvt_modeE(ptr noundef %0, ptr noundef readnone captures(address) %1, ptr noundef nonnull align 8 captures(none) dereferenceable(8) initializes((0, 8)) %2, ptr noundef %3, ptr noundef %4, ptr noundef nonnull align 8 captures(none) dereferenceable(8) initializes((0, 8)) %5, i64 noundef %6, i32 noundef %7) unnamed_addr #26 {
  store ptr %0, ptr %2, align 8, !tbaa !73
  store ptr %3, ptr %5, align 8, !tbaa !72
  %9 = and i32 %7, 2
  %.not = icmp eq i32 %9, 0
  br i1 %.not, label %21, label %10

10:                                               ; preds = %8
  %11 = ptrtoint ptr %4 to i64
  %12 = ptrtoint ptr %3 to i64
  %13 = sub i64 %11, %12
  %14 = icmp slt i64 %13, 3
  br i1 %14, label %.thread, label %15

15:                                               ; preds = %10
  %16 = getelementptr inbounds nuw i8, ptr %3, i64 1
  store ptr %16, ptr %5, align 8, !tbaa !72
  store i8 -17, ptr %3, align 1, !tbaa !4
  %17 = load ptr, ptr %5, align 8, !tbaa !72
  %18 = getelementptr inbounds nuw i8, ptr %17, i64 1
  store ptr %18, ptr %5, align 8, !tbaa !72
  store i8 -69, ptr %17, align 1, !tbaa !4
  %19 = load ptr, ptr %5, align 8, !tbaa !72
  %20 = getelementptr inbounds nuw i8, ptr %19, i64 1
  store ptr %20, ptr %5, align 8, !tbaa !72
  store i8 -65, ptr %19, align 1, !tbaa !4
  %.pre = load ptr, ptr %2, align 8, !tbaa !73
  br label %21

21:                                               ; preds = %15, %8
  %22 = phi ptr [ %.pre, %15 ], [ %0, %8 ]
  %23 = icmp ult ptr %22, %1
  br i1 %23, label %.lr.ph, label %.thread

.lr.ph:                                           ; preds = %21
  %24 = ptrtoint ptr %4 to i64
  br label %25

25:                                               ; preds = %.lr.ph, %106
  %26 = phi ptr [ %22, %.lr.ph ], [ %108, %106 ]
  %27 = load i32, ptr %26, align 4, !tbaa !27
  %28 = and i32 %27, -2048
  %29 = icmp eq i32 %28, 55296
  %30 = zext i32 %27 to i64
  %31 = icmp ult i64 %6, %30
  %or.cond = or i1 %29, %31
  br i1 %or.cond, label %.thread, label %32

32:                                               ; preds = %25
  %33 = icmp ult i32 %27, 128
  br i1 %33, label %34, label %42

34:                                               ; preds = %32
  %35 = load ptr, ptr %5, align 8, !tbaa !72
  %36 = ptrtoint ptr %35 to i64
  %37 = sub i64 %24, %36
  %38 = icmp slt i64 %37, 1
  br i1 %38, label %.thread, label %39

39:                                               ; preds = %34
  %40 = trunc nuw nsw i32 %27 to i8
  %41 = getelementptr inbounds nuw i8, ptr %35, i64 1
  store ptr %41, ptr %5, align 8, !tbaa !72
  store i8 %40, ptr %35, align 1, !tbaa !4
  br label %106

42:                                               ; preds = %32
  %43 = icmp ult i32 %27, 2048
  br i1 %43, label %44, label %59

44:                                               ; preds = %42
  %45 = load ptr, ptr %5, align 8, !tbaa !72
  %46 = ptrtoint ptr %45 to i64
  %47 = sub i64 %24, %46
  %48 = icmp slt i64 %47, 2
  br i1 %48, label %.thread, label %49

49:                                               ; preds = %44
  %50 = lshr i32 %27, 6
  %51 = trunc nuw nsw i32 %50 to i8
  %52 = or disjoint i8 %51, -64
  %53 = getelementptr inbounds nuw i8, ptr %45, i64 1
  store ptr %53, ptr %5, align 8, !tbaa !72
  store i8 %52, ptr %45, align 1, !tbaa !4
  %54 = trunc i32 %27 to i8
  %55 = and i8 %54, 63
  %56 = or disjoint i8 %55, -128
  %57 = load ptr, ptr %5, align 8, !tbaa !72
  %58 = getelementptr inbounds nuw i8, ptr %57, i64 1
  store ptr %58, ptr %5, align 8, !tbaa !72
  store i8 %56, ptr %57, align 1, !tbaa !4
  br label %106

59:                                               ; preds = %42
  %60 = icmp ult i32 %27, 65536
  %61 = load ptr, ptr %5, align 8, !tbaa !72
  %62 = ptrtoint ptr %61 to i64
  %63 = sub i64 %24, %62
  br i1 %60, label %64, label %82

64:                                               ; preds = %59
  %65 = icmp slt i64 %63, 3
  br i1 %65, label %.thread, label %66

66:                                               ; preds = %64
  %67 = lshr i32 %27, 12
  %68 = trunc nuw nsw i32 %67 to i8
  %69 = or disjoint i8 %68, -32
  %70 = getelementptr inbounds nuw i8, ptr %61, i64 1
  store ptr %70, ptr %5, align 8, !tbaa !72
  store i8 %69, ptr %61, align 1, !tbaa !4
  %71 = lshr i32 %27, 6
  %72 = trunc i32 %71 to i8
  %73 = and i8 %72, 63
  %74 = or disjoint i8 %73, -128
  %75 = load ptr, ptr %5, align 8, !tbaa !72
  %76 = getelementptr inbounds nuw i8, ptr %75, i64 1
  store ptr %76, ptr %5, align 8, !tbaa !72
  store i8 %74, ptr %75, align 1, !tbaa !4
  %77 = trunc i32 %27 to i8
  %78 = and i8 %77, 63
  %79 = or disjoint i8 %78, -128
  %80 = load ptr, ptr %5, align 8, !tbaa !72
  %81 = getelementptr inbounds nuw i8, ptr %80, i64 1
  store ptr %81, ptr %5, align 8, !tbaa !72
  store i8 %79, ptr %80, align 1, !tbaa !4
  br label %106

82:                                               ; preds = %59
  %83 = icmp slt i64 %63, 4
  br i1 %83, label %.thread, label %84

84:                                               ; preds = %82
  %85 = lshr i32 %27, 18
  %86 = trunc i32 %85 to i8
  %87 = or i8 %86, -16
  %88 = getelementptr inbounds nuw i8, ptr %61, i64 1
  store ptr %88, ptr %5, align 8, !tbaa !72
  store i8 %87, ptr %61, align 1, !tbaa !4
  %89 = lshr i32 %27, 12
  %90 = trunc i32 %89 to i8
  %91 = and i8 %90, 63
  %92 = or disjoint i8 %91, -128
  %93 = load ptr, ptr %5, align 8, !tbaa !72
  %94 = getelementptr inbounds nuw i8, ptr %93, i64 1
  store ptr %94, ptr %5, align 8, !tbaa !72
  store i8 %92, ptr %93, align 1, !tbaa !4
  %95 = lshr i32 %27, 6
  %96 = trunc i32 %95 to i8
  %97 = and i8 %96, 63
  %98 = or disjoint i8 %97, -128
  %99 = load ptr, ptr %5, align 8, !tbaa !72
  %100 = getelementptr inbounds nuw i8, ptr %99, i64 1
  store ptr %100, ptr %5, align 8, !tbaa !72
  store i8 %98, ptr %99, align 1, !tbaa !4
  %101 = trunc i32 %27 to i8
  %102 = and i8 %101, 63
  %103 = or disjoint i8 %102, -128
  %104 = load ptr, ptr %5, align 8, !tbaa !72
  %105 = getelementptr inbounds nuw i8, ptr %104, i64 1
  store ptr %105, ptr %5, align 8, !tbaa !72
  store i8 %103, ptr %104, align 1, !tbaa !4
  br label %106

106:                                              ; preds = %49, %84, %66, %39
  %107 = load ptr, ptr %2, align 8, !tbaa !73
  %108 = getelementptr inbounds nuw i8, ptr %107, i64 4
  store ptr %108, ptr %2, align 8, !tbaa !73
  %109 = icmp ult ptr %108, %1
  br i1 %109, label %25, label %.thread, !llvm.loop !427

.thread:                                          ; preds = %106, %25, %34, %44, %64, %82, %21, %10
  %.049 = phi i32 [ 1, %10 ], [ 0, %21 ], [ 0, %106 ], [ 2, %25 ], [ 1, %34 ], [ 1, %44 ], [ 1, %64 ], [ 1, %82 ]
  ret i32 %.049
}